target datalayout = "e-m:e-p270:32:32-p271:32:32-p272:64:64-i64:64-i128:128-f80:128-n8:16:32:64-S128"
target triple = "x86_64-pc-linux-gnu"

%"struct.std::atomic.8" = type { %"struct.std::__atomic_base.9" }
%"struct.std::__atomic_base.9" = type { i8 }
%"struct.std::atomic.2" = type { %"struct.std::__atomic_base.3" }
%"struct.std::__atomic_base.3" = type { i64 }
%"class.pxrInternal_v0_24__pxrReserved__::Sdf_ChangeManager" = type { %"class.tbb::detail::d1::enumerable_thread_specific" }
%"class.tbb::detail::d1::enumerable_thread_specific" = type { %"class.tbb::detail::d1::ets_base", ptr, %"class.tbb::detail::d1::concurrent_vector" }
%"class.tbb::detail::d1::ets_base" = type { ptr, %"struct.std::atomic.0", %"struct.std::atomic.2" }
%"struct.std::atomic.0" = type { %"struct.std::__atomic_base.1" }
%"struct.std::__atomic_base.1" = type { ptr }
%"class.tbb::detail::d1::concurrent_vector" = type { %"class.tbb::detail::d1::segment_table.base", [7 x i8] }
%"class.tbb::detail::d1::segment_table.base" = type <{ ptr, [8 x i8], %"struct.std::atomic.4", [3 x %"struct.std::atomic.6"], %"struct.std::atomic.2", %"struct.std::atomic.2", %"struct.std::atomic.8" }>
%"struct.std::atomic.4" = type { %"struct.std::__atomic_base.5" }
%"struct.std::__atomic_base.5" = type { ptr }
%"struct.std::atomic.6" = type { %"struct.std::__atomic_base.7" }
%"struct.std::__atomic_base.7" = type { ptr }
%"class.tbb::detail::d1::tbb_allocator" = type { i8 }
%"class.tbb::detail::d1::cache_aligned_allocator" = type { i8 }
%"class.tbb::detail::d1::segment_table" = type <{ ptr, [8 x i8], %"struct.std::atomic.4", [3 x %"struct.std::atomic.6"], %"struct.std::atomic.2", %"struct.std::atomic.2", %"struct.std::atomic.8", [7 x i8] }>

; Function Attrs: mustprogress nounwind uwtable
define linkonce_odr noundef i32 @_ZStanSt12memory_orderSt23__memory_order_modifier(i32 noundef %0, i32 noundef %1) #1 comdat {
  %3 = alloca i32, align 4
  %4 = alloca i32, align 4
  store i32 %0, ptr %3, align 4
  store i32 %1, ptr %4, align 4
  %5 = load i32, ptr %3, align 4
  %6 = load i32, ptr %4, align 4
  %7 = and i32 %5, %6
  ret i32 %7
}

; Function Attrs: mustprogress nounwind uwtable
define linkonce_odr void @_ZNSt6atomicIPN3tbb6detail2d06paddedINS1_2d111ets_elementIN32pxrInternal_v0_24__pxrReserved__17Sdf_ChangeManager5_DataEEELm128EEEE5storeESB_St12memory_order(ptr noundef nonnull align 8 dereferenceable(8) %0, ptr noundef %1, i32 noundef %2) #1 comdat align 2 {
  %4 = alloca ptr, align 8
  %5 = alloca ptr, align 8
  %6 = alloca i32, align 4
  %7 = alloca i32, align 4
  %8 = alloca ptr, align 8
  %9 = alloca ptr, align 8
  %10 = alloca ptr, align 8
  %11 = alloca i32, align 4
  store ptr %0, ptr %9, align 8
  store ptr %1, ptr %10, align 8
  store i32 %2, ptr %11, align 4
  %12 = load ptr, ptr %9, align 8
  %13 = getelementptr inbounds nuw %"struct.std::atomic.6", ptr %12, i32 0, i32 0
  %14 = load ptr, ptr %10, align 8
  %15 = load i32, ptr %11, align 4
  store ptr %13, ptr %4, align 8
  store ptr %14, ptr %5, align 8
  store i32 %15, ptr %6, align 4
  %16 = load ptr, ptr %4, align 8
  %17 = load i32, ptr %6, align 4
  %18 = call noundef i32 @_ZStanSt12memory_orderSt23__memory_order_modifier(i32 noundef %17, i32 noundef 65535)
  store i32 %18, ptr %7, align 4
  %19 = load i32, ptr %6, align 4
  %20 = load ptr, ptr %5, align 8
  store ptr %20, ptr %8, align 8
  switch i32 %19, label %21 [
    i32 3, label %23
    i32 5, label %25
  ]

21:                                               ; preds = %3
  %22 = load i64, ptr %8, align 8
  store atomic i64 %22, ptr %16 monotonic, align 8
  br label %27

23:                                               ; preds = %3
  %24 = load i64, ptr %8, align 8
  store atomic i64 %24, ptr %16 release, align 8
  br label %27

25:                                               ; preds = %3
  %26 = load i64, ptr %8, align 8
  store atomic i64 %26, ptr %16 seq_cst, align 8
  br label %27

27:                                               ; preds = %25, %23, %21
  ret void
}

; Function Attrs: mustprogress nounwind uwtable
define linkonce_odr void @_ZNSt13__atomic_baseIPSt6atomicIPN3tbb6detail2d06paddedINS2_2d111ets_elementIN32pxrInternal_v0_24__pxrReserved__17Sdf_ChangeManager5_DataEEELm128EEEEEC2ESE_(ptr noundef nonnull align 8 dereferenceable(8) %0, ptr noundef %1) unnamed_addr #1 comdat align 2 {
  %3 = alloca ptr, align 8
  %4 = alloca ptr, align 8
  store ptr %0, ptr %3, align 8
  store ptr %1, ptr %4, align 8
  %5 = load ptr, ptr %3, align 8
  %6 = getelementptr inbounds nuw %"struct.std::__atomic_base.5", ptr %5, i32 0, i32 0
  %7 = load ptr, ptr %4, align 8
  store ptr %7, ptr %6, align 8
  ret void
}

; Function Attrs: mustprogress nounwind uwtable
define linkonce_odr void @_ZN3tbb6detail2d113segment_tableINS0_2d06paddedINS1_11ets_elementIN32pxrInternal_v0_24__pxrReserved__17Sdf_ChangeManager5_DataEEELm128EEENS1_23cache_aligned_allocatorISA_EENS1_17concurrent_vectorISA_SC_EELm3EE10zero_tableEPSt6atomicIPSA_Em(ptr noundef nonnull align 8 dereferenceable(65) %0, ptr noundef %1, i64 noundef %2) #1 comdat align 2 {
  %4 = alloca ptr, align 8
  %5 = alloca ptr, align 8
  %6 = alloca i64, align 8
  %7 = alloca i64, align 8
  store ptr %0, ptr %4, align 8
  store ptr %1, ptr %5, align 8
  store i64 %2, ptr %6, align 8
  store i64 0, ptr %7, align 8
  br label %8

8:                                                ; preds = %16, %3
  %9 = load i64, ptr %7, align 8
  %10 = load i64, ptr %6, align 8
  %11 = icmp ne i64 %9, %10
  br i1 %11, label %12, label %19

12:                                               ; preds = %8
  %13 = load ptr, ptr %5, align 8
  %14 = load i64, ptr %7, align 8
  %15 = getelementptr inbounds %"struct.std::atomic.6", ptr %13, i64 %14
  call void @_ZNSt6atomicIPN3tbb6detail2d06paddedINS1_2d111ets_elementIN32pxrInternal_v0_24__pxrReserved__17Sdf_ChangeManager5_DataEEELm128EEEE5storeESB_St12memory_order(ptr noundef nonnull align 8 dereferenceable(8) %15, ptr noundef null, i32 noundef 0) #7
  br label %16

16:                                               ; preds = %12
  %17 = load i64, ptr %7, align 8
  %18 = add i64 %17, 1
  store i64 %18, ptr %7, align 8
  br label %8, !llvm.loop !27

19:                                               ; preds = %8
  ret void
}

; Function Attrs: mustprogress nounwind uwtable
define linkonce_odr void @_ZNSt6atomicIPS_IPN3tbb6detail2d06paddedINS1_2d111ets_elementIN32pxrInternal_v0_24__pxrReserved__17Sdf_ChangeManager5_DataEEELm128EEEEEC2ESD_(ptr noundef nonnull align 8 dereferenceable(8) %0, ptr noundef %1) unnamed_addr #1 comdat align 2 {
  %3 = alloca ptr, align 8
  %4 = alloca ptr, align 8
  store ptr %0, ptr %3, align 8
  store ptr %1, ptr %4, align 8
  %5 = load ptr, ptr %3, align 8
  %6 = getelementptr inbounds nuw %"struct.std::atomic.4", ptr %5, i32 0, i32 0
  %7 = load ptr, ptr %4, align 8
  call void @_ZNSt13__atomic_baseIPSt6atomicIPN3tbb6detail2d06paddedINS2_2d111ets_elementIN32pxrInternal_v0_24__pxrReserved__17Sdf_ChangeManager5_DataEEELm128EEEEEC2ESE_(ptr noundef nonnull align 8 dereferenceable(8) %6, ptr noundef %7) #7
  ret void
}

; Function Attrs: mustprogress nounwind uwtable
define linkonce_odr void @_ZN3tbb6detail2d123cache_aligned_allocatorISt6atomicIPNS0_2d06paddedINS1_11ets_elementIN32pxrInternal_v0_24__pxrReserved__17Sdf_ChangeManager5_DataEEELm128EEEEEC2ISB_EERKNS2_IT_EE(ptr noundef nonnull align 1 dereferenceable(1) %0, ptr noundef nonnull align 1 dereferenceable(1) %1) unnamed_addr #1 comdat align 2 {
  %3 = alloca ptr, align 8
  %4 = alloca ptr, align 8
  store ptr %0, ptr %3, align 8
  store ptr %1, ptr %4, align 8
  ret void
}

; Function Attrs: noreturn nounwind uwtable
define linkonce_odr hidden void @__clang_call_terminate(ptr noundef %0) #9 comdat {
  %2 = call ptr @__cxa_begin_catch(ptr %0) #7
  call void @_ZSt9terminatev() #17
  unreachable
}

; Function Attrs: mustprogress uwtable
define linkonce_odr void @_ZN3tbb6detail2d113segment_tableINS0_2d06paddedINS1_11ets_elementIN32pxrInternal_v0_24__pxrReserved__17Sdf_ChangeManager5_DataEEELm128EEENS1_23cache_aligned_allocatorISA_EENS1_17concurrent_vectorISA_SC_EELm3EEC2ERKSC_(ptr noundef nonnull align 8 dereferenceable(65) %0, ptr noundef nonnull align 1 dereferenceable(1) %1) unnamed_addr #0 comdat align 2 {
  %3 = alloca ptr, align 8
  %4 = alloca ptr, align 8
  store ptr %0, ptr %3, align 8
  store ptr %1, ptr %4, align 8
  %5 = load ptr, ptr %3, align 8
  %6 = getelementptr inbounds nuw %"class.tbb::detail::d1::segment_table", ptr %5, i32 0, i32 0
  store ptr inttoptr (i64 1 to ptr), ptr %6, align 8
  %7 = getelementptr inbounds i8, ptr %5, i64 8
  %8 = load ptr, ptr %4, align 8
  call void @_ZN3tbb6detail2d123cache_aligned_allocatorISt6atomicIPNS0_2d06paddedINS1_11ets_elementIN32pxrInternal_v0_24__pxrReserved__17Sdf_ChangeManager5_DataEEELm128EEEEEC2ISB_EERKNS2_IT_EE(ptr noundef nonnull align 1 dereferenceable(1) %7, ptr noundef nonnull align 1 dereferenceable(1) %8) #7
  %9 = getelementptr inbounds nuw %"class.tbb::detail::d1::segment_table", ptr %5, i32 0, i32 2
  %10 = getelementptr inbounds nuw %"class.tbb::detail::d1::segment_table", ptr %5, i32 0, i32 3
  %11 = getelementptr inbounds [3 x %"struct.std::atomic.6"], ptr %10, i64 0, i64 0
  call void @_ZNSt6atomicIPS_IPN3tbb6detail2d06paddedINS1_2d111ets_elementIN32pxrInternal_v0_24__pxrReserved__17Sdf_ChangeManager5_DataEEELm128EEEEEC2ESD_(ptr noundef nonnull align 8 dereferenceable(8) %9, ptr noundef %11) #7
  %12 = getelementptr inbounds nuw %"class.tbb::detail::d1::segment_table", ptr %5, i32 0, i32 4
  call void @llvm.memset.p0.i64(ptr align 8 %12, i8 0, i64 8, i1 false)
  %13 = getelementptr inbounds nuw %"class.tbb::detail::d1::segment_table", ptr %5, i32 0, i32 5
  call void @llvm.memset.p0.i64(ptr align 8 %13, i8 0, i64 8, i1 false)
  %14 = getelementptr inbounds nuw %"class.tbb::detail::d1::segment_table", ptr %5, i32 0, i32 6
  call void @llvm.memset.p0.i64(ptr align 8 %14, i8 0, i64 1, i1 false)
  %15 = getelementptr inbounds nuw %"class.tbb::detail::d1::segment_table", ptr %5, i32 0, i32 3
  %16 = getelementptr inbounds [3 x %"struct.std::atomic.6"], ptr %15, i64 0, i64 0
  call void @_ZN3tbb6detail2d113segment_tableINS0_2d06paddedINS1_11ets_elementIN32pxrInternal_v0_24__pxrReserved__17Sdf_ChangeManager5_DataEEELm128EEENS1_23cache_aligned_allocatorISA_EENS1_17concurrent_vectorISA_SC_EELm3EE10zero_tableEPSt6atomicIPSA_Em(ptr noundef nonnull align 8 dereferenceable(65) %5, ptr noundef %16, i64 noundef 3)
  ret void
}

; Function Attrs: mustprogress nounwind uwtable
define linkonce_odr void @_ZN3tbb6detail2d113callback_baseD2Ev(ptr noundef nonnull align 8 dereferenceable(8) %0) unnamed_addr #1 comdat align 2 {
  %2 = alloca ptr, align 8
  store ptr %0, ptr %2, align 8
  ret void
}

; Function Attrs: mustprogress nounwind uwtable
define linkonce_odr void @_ZN3tbb6detail2d120construct_by_defaultIN32pxrInternal_v0_24__pxrReserved__17Sdf_ChangeManager5_DataEEC2Ei(ptr noundef nonnull align 1 dereferenceable(1) %0, i32 noundef %1) unnamed_addr #1 comdat align 2 {
  %3 = alloca ptr, align 8
  %4 = alloca i32, align 4
  store ptr %0, ptr %3, align 8
  store i32 %1, ptr %4, align 4
  ret void
}

; Function Attrs: mustprogress nounwind uwtable
define linkonce_odr void @_ZN3tbb6detail2d113callback_baseC2Ev(ptr noundef nonnull align 8 dereferenceable(8) %0) unnamed_addr #1 comdat align 2 {
  %2 = alloca ptr, align 8
  store ptr %0, ptr %2, align 8
  %3 = load ptr, ptr %2, align 8
  store ptr getelementptr inbounds inrange(-16, 40) ({ [7 x ptr] }, ptr @_ZTVN3tbb6detail2d113callback_baseE, i32 0, i32 0, i32 2), ptr %3, align 8
  ret void
}

; Function Attrs: mustprogress nounwind uwtable
define linkonce_odr void @_ZNSt13__atomic_baseImEC2Em(ptr noundef nonnull align 8 dereferenceable(8) %0, i64 noundef %1) unnamed_addr #1 comdat align 2 {
  %3 = alloca ptr, align 8
  %4 = alloca i64, align 8
  store ptr %0, ptr %3, align 8
  store i64 %1, ptr %4, align 8
  %5 = load ptr, ptr %3, align 8
  %6 = getelementptr inbounds nuw %"struct.std::__atomic_base.3", ptr %5, i32 0, i32 0
  %7 = load i64, ptr %4, align 8
  store i64 %7, ptr %6, align 8
  ret void
}

; Function Attrs: mustprogress nounwind uwtable
define linkonce_odr void @_ZNSt13__atomic_baseIPN3tbb6detail2d18ets_baseILNS2_18ets_key_usage_typeE1EE5arrayEEC2ES7_(ptr noundef nonnull align 8 dereferenceable(8) %0, ptr noundef %1) unnamed_addr #1 comdat align 2 {
  %3 = alloca ptr, align 8
  %4 = alloca ptr, align 8
  store ptr %0, ptr %3, align 8
  store ptr %1, ptr %4, align 8
  %5 = load ptr, ptr %3, align 8
  %6 = getelementptr inbounds nuw %"struct.std::__atomic_base.1", ptr %5, i32 0, i32 0
  %7 = load ptr, ptr %4, align 8
  store ptr %7, ptr %6, align 8
  ret void
}

; Function Attrs: mustprogress nounwind uwtable
define linkonce_odr void @_ZN3tbb6detail2d117concurrent_vectorINS0_2d06paddedINS1_11ets_elementIN32pxrInternal_v0_24__pxrReserved__17Sdf_ChangeManager5_DataEEELm128EEENS1_23cache_aligned_allocatorISA_EEEC2ERKSC_(ptr noundef nonnull align 8 dereferenceable(65) %0, ptr noundef nonnull align 1 dereferenceable(1) %1) unnamed_addr #1 comdat align 2 personality ptr @__gxx_personality_v0 {
  %3 = alloca ptr, align 8
  %4 = alloca ptr, align 8
  store ptr %0, ptr %3, align 8
  store ptr %1, ptr %4, align 8
  %5 = load ptr, ptr %3, align 8
  %6 = load ptr, ptr %4, align 8
  invoke void @_ZN3tbb6detail2d113segment_tableINS0_2d06paddedINS1_11ets_elementIN32pxrInternal_v0_24__pxrReserved__17Sdf_ChangeManager5_DataEEELm128EEENS1_23cache_aligned_allocatorISA_EENS1_17concurrent_vectorISA_SC_EELm3EEC2ERKSC_(ptr noundef nonnull align 8 dereferenceable(65) %5, ptr noundef nonnull align 1 dereferenceable(1) %6)
          to label %7 unwind label %8

7:                                                ; preds = %2
  ret void

8:                                                ; preds = %2
  %9 = landingpad { ptr, i32 }
          catch ptr null
  %10 = extractvalue { ptr, i32 } %9, 0
  call void @__clang_call_terminate(ptr %10) #17
  unreachable
}

; Function Attrs: mustprogress uwtable
define linkonce_odr void @_ZN3tbb6detail2d113callback_leafINS1_20construct_by_defaultIN32pxrInternal_v0_24__pxrReserved__17Sdf_ChangeManager5_DataEEEEC2IJiEEEDpOT_(ptr noundef nonnull align 8 dereferenceable(8) %0, ptr noundef nonnull align 4 dereferenceable(4) %1) unnamed_addr #0 comdat align 2 personality ptr @__gxx_personality_v0 {
  %3 = alloca ptr, align 8
  %4 = alloca ptr, align 8
  %5 = alloca ptr, align 8
  %6 = alloca i32, align 4
  store ptr %0, ptr %3, align 8
  store ptr %1, ptr %4, align 8
  %7 = load ptr, ptr %3, align 8
  call void @_ZN3tbb6detail2d113callback_baseC2Ev(ptr noundef nonnull align 8 dereferenceable(8) %7) #7
  %8 = load ptr, ptr %4, align 8
  %9 = load i32, ptr %8, align 4
  invoke void @_ZN3tbb6detail2d120construct_by_defaultIN32pxrInternal_v0_24__pxrReserved__17Sdf_ChangeManager5_DataEEC2Ei(ptr noundef nonnull align 1 dereferenceable(1) %7, i32 noundef %9)
          to label %10 unwind label %11

10:                                               ; preds = %2
  store ptr getelementptr inbounds inrange(-16, 40) ({ [7 x ptr] }, ptr @_ZTVN3tbb6detail2d113callback_leafINS1_20construct_by_defaultIN32pxrInternal_v0_24__pxrReserved__17Sdf_ChangeManager5_DataEEEEE, i32 0, i32 0, i32 2), ptr %7, align 8
  ret void

11:                                               ; preds = %2
  %12 = landingpad { ptr, i32 }
          cleanup
  %13 = extractvalue { ptr, i32 } %12, 0
  store ptr %13, ptr %5, align 8
  %14 = extractvalue { ptr, i32 } %12, 1
  store i32 %14, ptr %6, align 4
  call void @_ZN3tbb6detail2d113callback_baseD2Ev(ptr noundef nonnull align 8 dereferenceable(8) %7) #7
  br label %15

15:                                               ; preds = %11
  %16 = load ptr, ptr %5, align 8
  %17 = load i32, ptr %6, align 4
  %18 = insertvalue { ptr, i32 } poison, ptr %16, 0
  %19 = insertvalue { ptr, i32 } %18, i32 %17, 1
  resume { ptr, i32 } %19
}

; Function Attrs: mustprogress uwtable
define linkonce_odr noundef ptr @_ZN3tbb6detail2d113tbb_allocatorINS1_13callback_leafINS1_20construct_by_defaultIN32pxrInternal_v0_24__pxrReserved__17Sdf_ChangeManager5_DataEEEEEE8allocateEm(ptr noundef nonnull align 1 dereferenceable(1) %0, i64 noundef %1) #0 comdat align 2 {
  %3 = alloca ptr, align 8
  %4 = alloca i64, align 8
  store ptr %0, ptr %3, align 8
  store i64 %1, ptr %4, align 8
  %5 = load i64, ptr %4, align 8
  %6 = mul i64 %5, 8
  %7 = call noundef ptr @_ZN3tbb6detail2r115allocate_memoryEm(i64 noundef %6)
  ret ptr %7
}

; Function Attrs: mustprogress nounwind uwtable
define linkonce_odr void @_ZNSt6atomicImEC2Em(ptr noundef nonnull align 8 dereferenceable(8) %0, i64 noundef %1) unnamed_addr #1 comdat align 2 {
  %3 = alloca ptr, align 8
  %4 = alloca i64, align 8
  store ptr %0, ptr %3, align 8
  store i64 %1, ptr %4, align 8
  %5 = load ptr, ptr %3, align 8
  %6 = load i64, ptr %4, align 8
  call void @_ZNSt13__atomic_baseImEC2Em(ptr noundef nonnull align 8 dereferenceable(8) %5, i64 noundef %6) #7
  ret void
}

; Function Attrs: mustprogress nounwind uwtable
define linkonce_odr void @_ZNSt6atomicIPN3tbb6detail2d18ets_baseILNS2_18ets_key_usage_typeE1EE5arrayEEC2ES7_(ptr noundef nonnull align 8 dereferenceable(8) %0, ptr noundef %1) unnamed_addr #1 comdat align 2 {
  %3 = alloca ptr, align 8
  %4 = alloca ptr, align 8
  store ptr %0, ptr %3, align 8
  store ptr %1, ptr %4, align 8
  %5 = load ptr, ptr %3, align 8
  %6 = getelementptr inbounds nuw %"struct.std::atomic.0", ptr %5, i32 0, i32 0
  %7 = load ptr, ptr %4, align 8
  call void @_ZNSt13__atomic_baseIPN3tbb6detail2d18ets_baseILNS2_18ets_key_usage_typeE1EE5arrayEEC2ES7_(ptr noundef nonnull align 8 dereferenceable(8) %6, ptr noundef %7) #7
  ret void
}

; Function Attrs: mustprogress nounwind uwtable
define linkonce_odr void @_ZN3tbb6detail2d18ets_baseILNS1_18ets_key_usage_typeE1EED2Ev(ptr noundef nonnull align 8 dereferenceable(24) %0) unnamed_addr #1 comdat align 2 {
  %2 = alloca ptr, align 8
  store ptr %0, ptr %2, align 8
  %3 = load ptr, ptr %2, align 8
  store ptr getelementptr inbounds inrange(-16, 40) ({ [7 x ptr] }, ptr @_ZTVN3tbb6detail2d18ets_baseILNS1_18ets_key_usage_typeE1EEE, i32 0, i32 0, i32 2), ptr %3, align 8
  ret void
}

; Function Attrs: mustprogress nounwind uwtable
define linkonce_odr void @_ZN3tbb6detail2d117concurrent_vectorINS0_2d06paddedINS1_11ets_elementIN32pxrInternal_v0_24__pxrReserved__17Sdf_ChangeManager5_DataEEELm128EEENS1_23cache_aligned_allocatorISA_EEEC2Ev(ptr noundef nonnull align 8 dereferenceable(65) %0) unnamed_addr #1 comdat align 2 {
  %2 = alloca ptr, align 8
  %3 = alloca %"class.tbb::detail::d1::cache_aligned_allocator", align 1
  store ptr %0, ptr %2, align 8
  %4 = load ptr, ptr %2, align 8
  call void @_ZN3tbb6detail2d117concurrent_vectorINS0_2d06paddedINS1_11ets_elementIN32pxrInternal_v0_24__pxrReserved__17Sdf_ChangeManager5_DataEEELm128EEENS1_23cache_aligned_allocatorISA_EEEC2ERKSC_(ptr noundef nonnull align 8 dereferenceable(65) %4, ptr noundef nonnull align 1 dereferenceable(1) %3) #7
  ret void
}

; Function Attrs: mustprogress uwtable
define linkonce_odr noundef ptr @_ZN3tbb6detail2d113callback_leafINS1_20construct_by_defaultIN32pxrInternal_v0_24__pxrReserved__17Sdf_ChangeManager5_DataEEEE4makeIJiEEEPNS1_13callback_baseEDpOT_(ptr noundef nonnull align 4 dereferenceable(4) %0) #0 comdat align 2 {
  %2 = alloca ptr, align 8
  %3 = alloca ptr, align 8
  %4 = alloca %"class.tbb::detail::d1::tbb_allocator", align 1
  store ptr %0, ptr %2, align 8
  %5 = call noundef ptr @_ZN3tbb6detail2d113tbb_allocatorINS1_13callback_leafINS1_20construct_by_defaultIN32pxrInternal_v0_24__pxrReserved__17Sdf_ChangeManager5_DataEEEEEE8allocateEm(ptr noundef nonnull align 1 dereferenceable(1) %4, i64 noundef 1)
  store ptr %5, ptr %3, align 8
  %6 = load ptr, ptr %3, align 8
  %7 = load ptr, ptr %2, align 8
  call void @_ZN3tbb6detail2d113callback_leafINS1_20construct_by_defaultIN32pxrInternal_v0_24__pxrReserved__17Sdf_ChangeManager5_DataEEEEC2IJiEEEDpOT_(ptr noundef nonnull align 8 dereferenceable(8) %6, ptr noundef nonnull align 4 dereferenceable(4) %7)
  ret ptr %6
}

; Function Attrs: mustprogress nounwind uwtable
define linkonce_odr void @_ZN3tbb6detail2d18ets_baseILNS1_18ets_key_usage_typeE1EEC2Ev(ptr noundef nonnull align 8 dereferenceable(24) %0) unnamed_addr #1 comdat align 2 {
  %2 = alloca ptr, align 8
  store ptr %0, ptr %2, align 8
  %3 = load ptr, ptr %2, align 8
  store ptr getelementptr inbounds inrange(-16, 40) ({ [7 x ptr] }, ptr @_ZTVN3tbb6detail2d18ets_baseILNS1_18ets_key_usage_typeE1EEE, i32 0, i32 0, i32 2), ptr %3, align 8
  %4 = getelementptr inbounds nuw %"class.tbb::detail::d1::ets_base", ptr %3, i32 0, i32 1
  call void @_ZNSt6atomicIPN3tbb6detail2d18ets_baseILNS2_18ets_key_usage_typeE1EE5arrayEEC2ES7_(ptr noundef nonnull align 8 dereferenceable(8) %4, ptr noundef null) #7
  %5 = getelementptr inbounds nuw %"class.tbb::detail::d1::ets_base", ptr %3, i32 0, i32 2
  call void @_ZNSt6atomicImEC2Em(ptr noundef nonnull align 8 dereferenceable(8) %5, i64 noundef 0) #7
  ret void
}

; Function Attrs: mustprogress uwtable
define linkonce_odr void @_ZN3tbb6detail2d126enumerable_thread_specificIN32pxrInternal_v0_24__pxrReserved__17Sdf_ChangeManager5_DataENS1_23cache_aligned_allocatorIS5_EELNS1_18ets_key_usage_typeE1EEC2Ev(ptr noundef nonnull align 8 dereferenceable(104) %0) unnamed_addr #0 comdat align 2 personality ptr @__gxx_personality_v0 {
  %2 = alloca ptr, align 8
  %3 = alloca i32, align 4
  %4 = alloca ptr, align 8
  %5 = alloca i32, align 4
  store ptr %0, ptr %2, align 8
  %6 = load ptr, ptr %2, align 8
  call void @_ZN3tbb6detail2d18ets_baseILNS1_18ets_key_usage_typeE1EEC2Ev(ptr noundef nonnull align 8 dereferenceable(24) %6)
  store ptr getelementptr inbounds inrange(-16, 40) ({ [7 x ptr] }, ptr @_ZTVN3tbb6detail2d126enumerable_thread_specificIN32pxrInternal_v0_24__pxrReserved__17Sdf_ChangeManager5_DataENS1_23cache_aligned_allocatorIS5_EELNS1_18ets_key_usage_typeE1EEE, i32 0, i32 0, i32 2), ptr %6, align 8
  %7 = getelementptr inbounds nuw %"class.tbb::detail::d1::enumerable_thread_specific", ptr %6, i32 0, i32 1
  store i32 0, ptr %3, align 4
  %8 = invoke noundef ptr @_ZN3tbb6detail2d113callback_leafINS1_20construct_by_defaultIN32pxrInternal_v0_24__pxrReserved__17Sdf_ChangeManager5_DataEEEE4makeIJiEEEPNS1_13callback_baseEDpOT_(ptr noundef nonnull align 4 dereferenceable(4) %3)
          to label %9 unwind label %12

9:                                                ; preds = %1
  store ptr %8, ptr %7, align 8
  %10 = getelementptr inbounds nuw %"class.tbb::detail::d1::enumerable_thread_specific", ptr %6, i32 0, i32 2
  invoke void @_ZN3tbb6detail2d117concurrent_vectorINS0_2d06paddedINS1_11ets_elementIN32pxrInternal_v0_24__pxrReserved__17Sdf_ChangeManager5_DataEEELm128EEENS1_23cache_aligned_allocatorISA_EEEC2Ev(ptr noundef nonnull align 8 dereferenceable(65) %10)
          to label %11 unwind label %12

11:                                               ; preds = %9
  ret void

12:                                               ; preds = %9, %1
  %13 = landingpad { ptr, i32 }
          cleanup
  %14 = extractvalue { ptr, i32 } %13, 0
  store ptr %14, ptr %4, align 8
  %15 = extractvalue { ptr, i32 } %13, 1
  store i32 %15, ptr %5, align 4
  call void @_ZN3tbb6detail2d18ets_baseILNS1_18ets_key_usage_typeE1EED2Ev(ptr noundef nonnull align 8 dereferenceable(24) %6) #7
  br label %16

16:                                               ; preds = %12
  %17 = load ptr, ptr %4, align 8
  %18 = load i32, ptr %5, align 4
  %19 = insertvalue { ptr, i32 } poison, ptr %17, 0
  %20 = insertvalue { ptr, i32 } %19, i32 %18, 1
  resume { ptr, i32 } %20
}

; Function Attrs: mustprogress uwtable
define void @_ZN32pxrInternal_v0_24__pxrReserved__17Sdf_ChangeManagerC2Ev(ptr noundef nonnull align 8 dereferenceable(104) %0) unnamed_addr #0 align 2 {
  %2 = alloca ptr, align 8
  store ptr %0, ptr %2, align 8
  %3 = load ptr, ptr %2, align 8
  %4 = getelementptr inbounds nuw %"class.pxrInternal_v0_24__pxrReserved__::Sdf_ChangeManager", ptr %3, i32 0, i32 0
  call void @_ZN3tbb6detail2d126enumerable_thread_specificIN32pxrInternal_v0_24__pxrReserved__17Sdf_ChangeManager5_DataENS1_23cache_aligned_allocatorIS5_EELNS1_18ets_key_usage_typeE1EEC2Ev(ptr noundef nonnull align 8 dereferenceable(104) %4)
  ret void
}