; Function Attrs: mustprogress uwtable
define void @_ZN32pxrInternal_v0_24__pxrReserved__17Sdf_ChangeManagerC2Ev(ptr noundef nonnull align 8 dereferenceable(104) initializes((0, 24)) %0) unnamed_addr #0 align 2 personality ptr @__gxx_personality_v0 {
  %2 = getelementptr inbounds nuw i8, ptr %0, i64 8
  tail call void @llvm.memset.p0.i64(ptr noundef nonnull align 8 dereferenceable(16) %2, i8 0, i64 16, i1 false)
  store ptr getelementptr inbounds nuw inrange(-16, 40) (i8, ptr @_ZTVN3tbb6detail2d126enumerable_thread_specificIN32pxrInternal_v0_24__pxrReserved__17Sdf_ChangeManager5_DataENS1_23cache_aligned_allocatorIS5_EELNS1_18ets_key_usage_typeE1EEE, i64 16), ptr %0, align 8
  %3 = invoke noundef ptr @_ZN3tbb6detail2r115allocate_memoryEm(i64 noundef 8)
          to label %4 unwind label %12

4:                                                ; preds = %1
  store ptr getelementptr inbounds nuw inrange(-16, 40) (i8, ptr @_ZTVN3tbb6detail2d113callback_leafINS1_20construct_by_defaultIN32pxrInternal_v0_24__pxrReserved__17Sdf_ChangeManager5_DataEEEEE, i64 16), ptr %3, align 8
  %5 = getelementptr inbounds nuw i8, ptr %0, i64 24
  store ptr %3, ptr %5, align 8
  %6 = getelementptr inbounds nuw i8, ptr %0, i64 32
  store ptr inttoptr (i64 1 to ptr), ptr %6, align 8
  %7 = getelementptr inbounds nuw i8, ptr %0, i64 48
  %8 = getelementptr inbounds nuw i8, ptr %0, i64 56
  store ptr %8, ptr %7, align 8
  %9 = getelementptr inbounds nuw i8, ptr %0, i64 80
  tail call void @llvm.memset.p0.i64(ptr noundef nonnull align 8 dereferenceable(17) %9, i8 0, i64 17, i1 false)
  br label %.lr.ph.i.i.i.i.i

.lr.ph.i.i.i.i.i:                                 ; preds = %.lr.ph.i.i.i.i.i, %4
  %.05.i.i.i.i.i = phi i64 [ %11, %.lr.ph.i.i.i.i.i ], [ 0, %4 ]
  %10 = getelementptr inbounds nuw %"struct.std::atomic.6", ptr %8, i64 %.05.i.i.i.i.i
  store atomic i64 0, ptr %10 monotonic, align 8
  %11 = add nuw nsw i64 %.05.i.i.i.i.i, 1
  %.not.i.i.i.i.i = icmp eq i64 %11, 3
  br i1 %.not.i.i.i.i.i, label %_ZN3tbb6detail2d126enumerable_thread_specificIN32pxrInternal_v0_24__pxrReserved__17Sdf_ChangeManager5_DataENS1_23cache_aligned_allocatorIS5_EELNS1_18ets_key_usage_typeE1EEC2Ev.exit, label %.lr.ph.i.i.i.i.i, !llvm.loop !7

12:                                               ; preds = %1
  %13 = landingpad { ptr, i32 }
          cleanup
  store ptr getelementptr inbounds nuw inrange(-16, 40) (i8, ptr @_ZTVN3tbb6detail2d18ets_baseILNS1_18ets_key_usage_typeE1EEE, i64 16), ptr %0, align 8
  resume { ptr, i32 } %13

_ZN3tbb6detail2d126enumerable_thread_specificIN32pxrInternal_v0_24__pxrReserved__17Sdf_ChangeManager5_DataENS1_23cache_aligned_allocatorIS5_EELNS1_18ets_key_usage_typeE1EEC2Ev.exit: ; preds = %.lr.ph.i.i.i.i.i
  ret void
}